Certificate:
    Data:
        Version: 3 (0x2)
        Serial Number:
            ac:c0:60:98:d5:b4:b5:18
        Signature Algorithm: sha1WithRSAEncryption
        Issuer: C=US, ST=California, O=Google, OU=Chrome OS, CN=OpenSSL Test CA/emailAddress=security@chromium.org
        Validity
            Not Before: May 11 17:17:37 2012 GMT
            Not After : Apr 17 17:17:37 2112 GMT
        Subject: C=US, ST=California, O=Google, OU=Chrome OS, CN=OpenSSL Test CA/emailAddress=security@chromium.org
        Subject Public Key Info:
            Public Key Algorithm: rsaEncryption
            RSA Public Key: (1024 bit)
                Modulus (1024 bit):
                    00:9e:ae:41:af:4c:a9:b7:b3:6a:ba:16:48:08:76:
                    90:2f:a8:c4:50:0a:44:c1:76:16:18:ae:2d:04:6f:
                    b6:0f:1e:0a:9b:81:23:7e:07:7e:85:2d:64:28:bd:
                    3a:27:2c:98:0e:85:af:2a:1a:8d:8c:a4:39:b0:9e:
                    6b:ad:68:4f:69:fc:17:f7:e8:07:7f:1b:3c:7e:b8:
                    b0:f4:7b:7d:71:ea:eb:78:40:b5:64:ea:11:04:47:
                    29:56:90:3a:0c:13:27:d4:db:e4:aa:8b:99:28:41:
                    06:9c:9b:e0:64:f4:e4:98:0f:86:6d:ba:0f:53:32:
                    6d:27:1f:06:8e:30:70:55:43
                Exponent: 65537 (0x10001)
        X509v3 extensions:
            X509v3 Subject Key Identifier: 
                EC:CB:48:85:6F:F6:87:56:D9:69:3A:7E:F6:34:AF:AB:77:40:02:1B
            X509v3 Authority Key Identifier: 
                keyid:EC:CB:48:85:6F:F6:87:56:D9:69:3A:7E:F6:34:AF:AB:77:40:02:1B
                DirName:/C=US/ST=California/O=Google/OU=Chrome OS/CN=OpenSSL Test CA/emailAddress=security@chromium.org
                serial:AC:C0:60:98:D5:B4:B5:18

            X509v3 Basic Constraints: 
                CA:TRUE
    Signature Algorithm: sha1WithRSAEncryption
        11:fa:82:df:24:6d:b1:16:0a:7e:66:72:c6:31:05:cd:e4:89:
        84:7f:fa:28:f4:34:33:06:9b:d5:98:5f:64:5b:ce:8f:8e:d2:
        b2:53:94:11:19:91:12:d7:8c:de:52:f2:48:4e:bb:67:97:1c:
        31:60:7c:b7:fa:0c:fb:ae:84:81:d3:ac:f9:45:57:56:39:97:
        58:c8:62:ed:79:39:f8:99:ff:ce:6e:3d:c9:4c:ae:4c:3e:f1:
        a2:d3:3e:fd:06:52:c4:4e:15:95:d8:64:85:4e:ef:a1:03:a4:
        e6:1b:88:bd:3a:a3:17:dc:fc:37:4b:ec:1c:42:0c:70:18:dc:
        b9:55
-----BEGIN CERTIFICATE-----
MIIDgDCCAumgAwIBAgIJAKzAYJjVtLUYMA0GCSqGSIb3DQEBBQUAMIGHMQswCQYD
VQQGEwJVUzETMBEGA1UECBMKQ2FsaWZvcm5pYTEPMA0GA1UEChMGR29vZ2xlMRIw
EAYDVQQLEwlDaHJvbWUgT1MxGDAWBgNVBAMTD09wZW5TU0wgVGVzdCBDQTEkMCIG
CSqGSIb3DQEJARYVc2VjdXJpdHlAY2hyb21pdW0ub3JnMCAXDTEyMDUxMTE3MTcz
N1oYDzIxMTIwNDE3MTcxNzM3WjCBhzELMAkGA1UEBhMCVVMxEzARBgNVBAgTCkNh
bGlmb3JuaWExDzANBgNVBAoTBkdvb2dsZTESMBAGA1UECxMJQ2hyb21lIE9TMRgw
FgYDVQQDEw9PcGVuU1NMIFRlc3QgQ0ExJDAiBgkqhkiG9w0BCQEWFXNlY3VyaXR5
QGNocm9taXVtLm9yZzCBnzANBgkqhkiG9w0BAQEFAAOBjQAwgYkCgYEAnq5Br0yp
t7NquhZICHaQL6jEUApEwXYWGK4tBG+2Dx4Km4Ejfgd+hS1kKL06JyyYDoWvKhqN
jKQ5sJ5rrWhPafwX9+gHfxs8friw9Ht9cerreEC1ZOoRBEcpVpA6DBMn1NvkqouZ
KEEGnJvgZPTkmA+GbboPUzJtJx8GjjBwVUMCAwEAAaOB7zCB7DAdBgNVHQ4EFgQU
7MtIhW/2h1bZaTp+9jSvq3dAAhswgbwGA1UdIwSBtDCBsYAU7MtIhW/2h1bZaTp+
9jSvq3dAAhuhgY2kgYowgYcxCzAJBgNVBAYTAlVTMRMwEQYDVQQIEwpDYWxpZm9y
bmlhMQ8wDQYDVQQKEwZHb29nbGUxEjAQBgNVBAsTCUNocm9tZSBPUzEYMBYGA1UE
AxMPT3BlblNTTCBUZXN0IENBMSQwIgYJKoZIhvcNAQkBFhVzZWN1cml0eUBjaHJv
bWl1bS5vcmeCCQCswGCY1bS1GDAMBgNVHRMEBTADAQH/MA0GCSqGSIb3DQEBBQUA
A4GBABH6gt8kbbEWCn5mcsYxBc3kiYR/+ij0NDMGm9WYX2Rbzo+O0rJTlBEZkRLX
jN5S8khOu2eXHDFgfLf6DPuuhIHTrPlFV1Y5l1jIYu15OfiZ/85uPclMrkw+8aLT
Pv0GUsROFZXYZIVO76EDpOYbiL06oxfc/DdL7BxCDHAY3LlV
-----END CERTIFICATE-----
